Certificate:
    Data:
        Version: 3 (0x2)
        Serial Number: 1 (0x1)
        Signature Algorithm: sha512WithRSAEncryption
        Issuer: O=DAOS, CN=DAOS CA
        Validity
            Not Before: May 30 00:43:31 2023 GMT
            Not After : May 29 00:43:31 2026 GMT
        Subject: O=DAOS, CN=server
        Subject Public Key Info:
            Public Key Algorithm: rsaEncryption
                Public-Key: (3072 bit)
                Modulus:
                    00:eb:12:12:a3:c2:c5:74:21:32:4e:e2:d1:02:45:
                    5a:2a:95:13:f9:9d:42:24:26:67:b8:43:b5:b8:36:
                    a6:54:f3:38:45:56:cf:85:48:97:33:a5:31:01:1f:
                    35:97:0f:ea:49:bb:52:88:c8:5c:d2:82:bd:4c:7a:
                    cd:b4:e0:e9:69:a3:6e:58:ab:1a:e3:ca:59:cb:f3:
                    5a:b7:45:a4:c1:7b:e8:f6:df:b5:dd:d0:35:30:de:
                    19:2d:81:25:b4:bd:06:a7:10:93:f2:67:ef:69:3a:
                    c6:fd:39:69:12:e5:c4:2b:07:ee:71:da:67:22:09:
                    a5:ea:b1:e2:43:0b:2f:a3:29:98:76:08:ad:bc:2f:
                    6f:38:b9:8b:62:17:c2:64:e4:d5:a7:30:24:9e:5d:
                    88:07:2b:b5:fc:be:39:29:b4:37:e1:3e:d6:b2:7e:
                    76:3a:95:ef:50:31:e0:26:93:c3:ab:56:ef:c2:ab:
                    fb:ea:86:cc:ce:c7:9f:18:48:93:54:5e:27:ce:b4:
                    0b:9e:3c:13:28:c5:a2:77:ae:26:65:a1:86:98:11:
                    f5:7d:6e:cc:13:af:eb:d9:4e:d9:3e:9c:5c:1e:99:
                    ed:5b:d3:e7:ee:45:13:46:72:29:a4:40:19:84:44:
                    e1:89:d6:3a:e1:31:27:eb:f9:4b:8e:41:b9:7e:64:
                    66:51:b8:db:55:ec:18:fb:03:1d:b7:da:3c:49:85:
                    f8:2c:1b:aa:86:09:08:98:01:db:1b:31:7a:4e:f4:
                    5c:ce:9f:78:df:f7:80:84:a4:1c:9c:4a:46:aa:19:
                    34:4e:9b:5c:38:28:09:c1:e1:a7:04:45:f6:fe:22:
                    ec:7e:2d:06:c4:26:82:37:be:3b:4e:af:17:c7:8b:
                    84:b6:12:77:b7:da:cf:95:18:cc:c0:9b:cd:21:7f:
                    bd:4c:39:5a:29:53:b0:ff:0d:c3:46:72:d2:4c:24:
                    e0:da:fb:29:2c:e6:e3:b2:fb:5e:23:c3:93:45:4a:
                    cf:c6:89:22:51:9e:4a:4a:2a:4b
                Exponent: 65537 (0x10001)
        X509v3 extensions:
            X509v3 Key Usage: critical
                Digital Signature, Key Encipherment
            X509v3 Extended Key Usage: 
                TLS Web Server Authentication, TLS Web Client Authentication
            X509v3 Subject Key Identifier: 
                A8:2E:10:03:A1:1D:FA:3C:34:47:67:FF:00:A1:8A:B2:04:3C:77:70
            X509v3 Authority Key Identifier: 
                C3:44:AC:AD:87:36:8F:C8:36:93:59:1B:3B:E8:5F:AC:C6:6E:78:96
    Signature Algorithm: sha512WithRSAEncryption
    Signature Value:
        6e:3c:28:55:d3:0c:0e:75:ab:59:94:0a:9e:88:d3:a0:f3:71:
        26:ad:1d:fd:10:07:ae:aa:be:dc:4b:0e:5d:17:e5:c6:df:87:
        a7:07:84:d3:4b:9e:83:b1:83:46:00:c9:0d:ac:0a:4a:35:3c:
        b7:27:17:71:98:00:31:c9:6a:dc:d3:b2:38:b3:7a:1c:ed:d5:
        41:91:3b:43:c8:75:a6:60:fb:ab:41:70:72:75:52:68:b5:b8:
        cf:b6:8c:ed:24:d9:44:34:b2:83:e3:60:76:26:16:28:45:bc:
        ba:f3:35:44:51:49:61:cd:b5:e6:4a:ea:60:b5:cb:3c:4b:94:
        b0:de:2a:23:7f:d3:2a:68:1a:72:9c:93:bd:df:46:20:34:e3:
        5a:ad:96:9a:33:56:6f:d7:61:b7:0f:6b:b2:25:5e:0f:76:ed:
        73:9d:40:1c:ad:42:63:73:7f:0b:04:e9:73:e8:da:b6:d1:55:
        15:24:1d:0e:73:4f:54:2a:77:a0:5f:32:78:44:f1:aa:73:62:
        10:a6:de:ad:6a:c7:ee:69:a0:b3:80:eb:d7:11:72:11:3f:75:
        ad:c7:77:b8:55:2e:85:6c:75:49:f6:70:03:99:ac:ba:34:59:
        2a:de:c7:f3:bb:d0:49:8b:9c:70:83:bd:c8:6a:05:4c:d5:3f:
        64:c9:a6:f8:06:d4:59:f6:0e:7c:7b:47:94:40:8e:e5:01:a1:
        44:13:42:46:40:9c:a5:a3:c1:3a:c0:a9:bf:91:8f:f8:59:6a:
        3d:0c:c1:79:94:c7:24:f6:ed:60:0e:72:31:02:b1:90:2d:72:
        0a:dc:7d:f2:8e:7e:25:37:7f:8e:b1:b3:a9:d6:88:2e:85:2e:
        19:85:dd:60:75:00:fa:7f:2e:2c:3d:81:18:61:31:20:4a:4b:
        84:5f:1b:10:c2:51:d0:e7:c8:e7:1b:2e:96:05:22:12:61:92:
        03:13:59:11:12:4a:13:94:2c:51:1e:0b:f7:90:db:52:0b:a6:
        92:ba:7d:14:ec:f0
-----BEGIN CERTIFICATE-----
MIIELTCCApWgAwIBAgIBATANBgkqhkiG9w0BAQ0FADAhMQ0wCwYDVQQKDAREQU9T
MRAwDgYDVQQDDAdEQU9TIENBMB4XDTIzMDUzMDAwNDMzMVoXDTI2MDUyOTAwNDMz
MVowIDENMAsGA1UECgwEREFPUzEPMA0GA1UEAwwGc2VydmVyMIIBojANBgkqhkiG
9w0BAQEFAAOCAY8AMIIBigKCAYEA6xISo8LFdCEyTuLRAkVaKpUT+Z1CJCZnuEO1
uDamVPM4RVbPhUiXM6UxAR81lw/qSbtSiMhc0oK9THrNtODpaaNuWKsa48pZy/Na
t0WkwXvo9t+13dA1MN4ZLYEltL0GpxCT8mfvaTrG/TlpEuXEKwfucdpnIgml6rHi
QwsvoymYdgitvC9vOLmLYhfCZOTVpzAknl2IByu1/L45KbQ34T7Wsn52OpXvUDHg
JpPDq1bvwqv76obMzsefGEiTVF4nzrQLnjwTKMWid64mZaGGmBH1fW7ME6/r2U7Z
PpxcHpntW9Pn7kUTRnIppEAZhEThidY64TEn6/lLjkG5fmRmUbjbVewY+wMdt9o8
SYX4LBuqhgkImAHbGzF6TvRczp943/eAhKQcnEpGqhk0TptcOCgJweGnBEX2/iLs
fi0GxCaCN747Tq8Xx4uEthJ3t9rPlRjMwJvNIX+9TDlaKVOw/w3DRnLSTCTg2vsp
LObjsvteI8OTRUrPxokiUZ5KSipLAgMBAAGjcTBvMA4GA1UdDwEB/wQEAwIFoDAd
BgNVHSUEFjAUBggrBgEFBQcDAQYIKwYBBQUHAwIwHQYDVR0OBBYEFKguEAOhHfo8
NEdn/wChirIEPHdwMB8GA1UdIwQYMBaAFMNErK2HNo/INpNZGzvoX6zGbniWMA0G
CSqGSIb3DQEBDQUAA4IBgQBuPChV0wwOdatZlAqeiNOg83EmrR39EAeuqr7cSw5d
F+XG34enB4TTS56DsYNGAMkNrApKNTy3JxdxmAAxyWrc07I4s3oc7dVBkTtDyHWm
YPurQXBydVJotbjPtoztJNlENLKD42B2JhYoRby68zVEUUlhzbXmSupgtcs8S5Sw
3iojf9MqaBpynJO930YgNONarZaaM1Zv12G3D2uyJV4Pdu1znUAcrUJjc38LBOlz
6Nq20VUVJB0Oc09UKnegXzJ4RPGqc2IQpt6tasfuaaCzgOvXEXIRP3Wtx3e4VS6F
bHVJ9nADmay6NFkq3sfzu9BJi5xwg73IagVM1T9kyab4BtRZ9g58e0eUQI7lAaFE
E0JGQJylo8E6wKm/kY/4WWo9DMF5lMck9u1gDnIxArGQLXIK3H3yjn4lN3+OsbOp
1oguhS4Zhd1gdQD6fy4sPYEYYTEgSkuEXxsQwlHQ58jnGy6WBSISYZIDE1kREkoT
lCxRHgv3kNtSC6aSun0U7PA=
-----END CERTIFICATE-----
