Certificate:
    Data:
        Version: 3 (0x2)
        Serial Number: 2 (0x2)
        Signature Algorithm: sha512WithRSAEncryption
        Issuer: O=DAOS, CN=DAOS CA
        Validity
            Not Before: May 30 00:43:32 2023 GMT
            Not After : May 29 00:43:32 2026 GMT
        Subject: O=DAOS, CN=agent
        Subject Public Key Info:
            Public Key Algorithm: rsaEncryption
                Public-Key: (3072 bit)
                Modulus:
                    00:b3:12:6c:eb:c2:ad:6f:e9:bd:4f:7b:05:ee:08:
                    52:e9:0b:95:29:d9:65:68:57:fe:c8:d6:1f:15:c0:
                    80:04:ce:17:6e:37:54:fe:74:79:17:be:6f:5b:04:
                    1c:6a:eb:a2:39:e3:c7:4e:4b:68:61:9a:70:ab:0a:
                    17:d3:b1:fb:d8:cb:d0:e9:37:1b:a3:18:b5:d9:b5:
                    e0:4c:81:06:ed:2c:de:ea:27:0b:ac:22:77:61:e5:
                    58:78:f4:64:f3:ed:0a:c2:a4:23:81:3a:c9:87:40:
                    dc:69:f9:dc:d2:d8:2d:40:2e:0d:06:26:3f:c1:5f:
                    bb:33:9f:31:08:3d:33:07:73:dd:8a:ce:24:05:c0:
                    16:bf:4d:e5:a3:61:cc:ea:5e:c6:46:3b:39:3e:5e:
                    01:f2:ae:11:9f:79:ed:c2:ce:bc:6a:16:c5:05:d8:
                    30:70:ae:b0:55:60:d5:a6:04:4e:41:1b:d6:ce:47:
                    7c:3f:6b:21:a8:05:7a:f6:d0:fe:c7:a6:1f:1f:f4:
                    a2:86:cc:74:7e:28:08:dd:a9:f7:c7:9d:11:c7:03:
                    b4:dd:bd:62:51:ee:c4:b5:db:74:3b:e2:dc:b6:0a:
                    03:06:7a:6c:37:07:a9:a9:37:80:75:cf:d1:b1:93:
                    5e:de:52:5a:b3:59:23:e2:c7:6b:29:d3:81:63:3a:
                    4c:24:02:4d:6a:01:7a:6b:63:3a:6d:1d:2b:19:57:
                    96:c5:d5:8c:8c:5d:4d:29:6c:60:e0:89:79:25:76:
                    4d:96:b7:05:a7:8a:8c:06:34:f1:a8:b3:d6:d2:f9:
                    df:aa:29:fe:32:e7:81:7b:f9:e7:8c:0b:67:f7:b0:
                    b7:bf:18:78:08:9f:30:b1:40:23:bb:ef:36:74:69:
                    93:62:1a:43:fd:01:48:27:6a:6a:0a:44:58:fc:f8:
                    a9:be:cf:05:6f:e6:66:55:3c:8f:76:89:3a:67:03:
                    a3:ac:83:ce:f8:b4:97:bd:8c:61:44:9e:3f:4c:47:
                    80:42:bd:34:65:7a:b7:be:92:eb
                Exponent: 65537 (0x10001)
        X509v3 extensions:
            X509v3 Key Usage: critical
                Digital Signature, Key Encipherment
            X509v3 Extended Key Usage: 
                TLS Web Client Authentication
            X509v3 Subject Key Identifier: 
                21:05:F5:4D:4E:83:7A:10:5A:57:89:97:63:2B:DE:32:A4:FF:ED:3A
            X509v3 Authority Key Identifier: 
                C3:44:AC:AD:87:36:8F:C8:36:93:59:1B:3B:E8:5F:AC:C6:6E:78:96
    Signature Algorithm: sha512WithRSAEncryption
    Signature Value:
        3e:65:e5:cc:f9:8e:6c:bf:d4:b5:2a:46:af:e5:25:e3:d0:ef:
        74:50:63:4b:c7:41:00:28:3e:0c:66:24:00:e2:d8:df:50:e2:
        27:e5:26:a9:f6:41:85:c6:95:57:4d:92:16:d9:26:24:7c:35:
        df:71:f8:c9:96:9b:ee:c8:77:8d:1a:02:29:90:4e:da:0b:83:
        9b:6f:69:af:41:70:12:a0:39:49:7b:7a:1a:5d:46:7b:81:f7:
        97:59:21:e9:11:ca:b4:77:26:e1:c7:6e:d0:b6:f3:35:23:d1:
        27:d9:a1:12:b6:fe:2a:84:12:1d:23:96:75:6a:6a:9b:cd:21:
        46:37:0d:1a:91:4f:cd:96:6a:e5:52:83:fb:84:07:8a:4a:20:
        21:b3:da:6f:fe:75:0b:56:8c:c1:f0:1d:51:7e:80:2b:a6:35:
        fd:80:d1:47:b7:9c:31:e7:d4:76:d5:91:01:4c:8a:35:98:79:
        78:8e:c4:03:4d:1e:36:5a:1e:f0:75:d6:94:f5:1a:6d:ed:73:
        c1:48:79:66:9d:b1:6f:0b:87:b9:69:5c:0c:e7:17:51:9a:44:
        7c:72:c1:77:a2:e7:7a:de:86:3f:ec:78:72:04:0b:1a:18:79:
        a5:62:01:de:73:70:7f:77:db:a9:0c:da:31:74:7e:b7:56:48:
        32:07:f1:71:38:7c:d6:62:88:33:35:13:00:35:3f:6f:03:d6:
        0b:7d:c7:0a:9f:b0:26:2c:1b:ba:e7:b6:82:a0:f6:09:97:ae:
        fc:43:0e:c8:3e:33:07:4d:ad:2b:62:db:c3:52:1b:4f:41:0e:
        f6:62:d7:ea:be:27:6c:a2:3d:e6:0c:7e:07:bb:16:f7:cb:18:
        4e:b6:a4:51:c4:21:8e:ec:f5:2a:de:1a:8d:25:6f:2a:ba:cb:
        24:c0:49:a3:8a:ed:51:9d:83:9f:e6:d2:2c:44:9b:41:14:b9:
        91:1c:b3:d7:cd:95:b3:0a:d3:83:f4:da:fc:7c:b0:fa:98:ff:
        51:f3:b6:ac:d4:c7
-----BEGIN CERTIFICATE-----
MIIEIjCCAoqgAwIBAgIBAjANBgkqhkiG9w0BAQ0FADAhMQ0wCwYDVQQKDAREQU9T
MRAwDgYDVQQDDAdEQU9TIENBMB4XDTIzMDUzMDAwNDMzMloXDTI2MDUyOTAwNDMz
MlowHzENMAsGA1UECgwEREFPUzEOMAwGA1UEAwwFYWdlbnQwggGiMA0GCSqGSIb3
DQEBAQUAA4IBjwAwggGKAoIBgQCzEmzrwq1v6b1PewXuCFLpC5Up2WVoV/7I1h8V
wIAEzhduN1T+dHkXvm9bBBxq66I548dOS2hhmnCrChfTsfvYy9DpNxujGLXZteBM
gQbtLN7qJwusIndh5Vh49GTz7QrCpCOBOsmHQNxp+dzS2C1ALg0GJj/BX7sznzEI
PTMHc92KziQFwBa/TeWjYczqXsZGOzk+XgHyrhGfee3CzrxqFsUF2DBwrrBVYNWm
BE5BG9bOR3w/ayGoBXr20P7Hph8f9KKGzHR+KAjdqffHnRHHA7TdvWJR7sS123Q7
4ty2CgMGemw3B6mpN4B1z9Gxk17eUlqzWSPix2sp04FjOkwkAk1qAXprYzptHSsZ
V5bF1YyMXU0pbGDgiXkldk2WtwWniowGNPGos9bS+d+qKf4y54F7+eeMC2f3sLe/
GHgInzCxQCO77zZ0aZNiGkP9AUgnamoKRFj8+Km+zwVv5mZVPI92iTpnA6Osg874
tJe9jGFEnj9MR4BCvTRlere+kusCAwEAAaNnMGUwDgYDVR0PAQH/BAQDAgWgMBMG
A1UdJQQMMAoGCCsGAQUFBwMCMB0GA1UdDgQWBBQhBfVNToN6EFpXiZdjK94ypP/t
OjAfBgNVHSMEGDAWgBTDRKythzaPyDaTWRs76F+sxm54ljANBgkqhkiG9w0BAQ0F
AAOCAYEAPmXlzPmObL/UtSpGr+Ul49DvdFBjS8dBACg+DGYkAOLY31DiJ+UmqfZB
hcaVV02SFtkmJHw133H4yZab7sh3jRoCKZBO2guDm29pr0FwEqA5SXt6Gl1Ge4H3
l1kh6RHKtHcm4cdu0LbzNSPRJ9mhErb+KoQSHSOWdWpqm80hRjcNGpFPzZZq5VKD
+4QHikogIbPab/51C1aMwfAdUX6AK6Y1/YDRR7ecMefUdtWRAUyKNZh5eI7EA00e
Nloe8HXWlPUabe1zwUh5Zp2xbwuHuWlcDOcXUZpEfHLBd6Lnet6GP+x4cgQLGhh5
pWIB3nNwf3fbqQzaMXR+t1ZIMgfxcTh81mKIMzUTADU/bwPWC33HCp+wJiwbuue2
gqD2CZeu/EMOyD4zB02tK2Lbw1IbT0EO9mLX6r4nbKI95gx+B7sW98sYTrakUcQh
juz1Kt4ajSVvKrrLJMBJo4rtUZ2Dn+bSLESbQRS5kRyz182VswrTg/Ta/Hyw+pj/
UfO2rNTH
-----END CERTIFICATE-----
