Certificate:
    Data:
        Version: 3 (0x2)
        Serial Number: 3 (0x3)
        Signature Algorithm: sha512WithRSAEncryption
        Issuer: O=DAOS, CN=DAOS CA
        Validity
            Not Before: May 30 00:43:33 2023 GMT
            Not After : May 29 00:43:33 2026 GMT
        Subject: O=DAOS, CN=admin
        Subject Public Key Info:
            Public Key Algorithm: rsaEncryption
                Public-Key: (3072 bit)
                Modulus:
                    00:c9:29:fb:71:35:d0:75:9a:66:89:e9:88:d2:9b:
                    d5:cf:b0:ff:80:32:a5:cf:28:a3:a3:2c:83:10:a4:
                    36:27:1e:52:cf:ea:18:b7:71:95:2d:75:50:9d:1b:
                    f4:3a:57:88:b6:35:e9:a3:c9:63:50:56:44:88:fc:
                    80:be:77:79:e1:c3:80:27:20:19:78:40:fb:39:9f:
                    58:53:d7:d1:63:07:e8:0c:ce:58:64:09:76:84:dd:
                    52:89:85:ef:11:43:17:c8:6f:b4:a8:68:43:c7:57:
                    39:58:28:b3:78:dc:fa:eb:b0:c5:21:6f:76:0a:15:
                    e6:02:6f:9a:04:df:04:ca:da:5b:ee:0d:5b:17:9f:
                    b4:99:d9:5c:1b:42:c7:fe:ae:f1:31:3c:bb:a7:70:
                    bd:26:19:2a:42:4f:77:68:d4:99:99:ac:5d:49:0e:
                    4c:91:9e:5c:bc:f6:f9:0c:8c:d6:83:f5:c6:99:4e:
                    89:fb:81:9c:81:4b:de:9e:7b:7b:ff:57:1a:7e:90:
                    fe:55:0a:d5:a2:27:3a:b7:49:89:86:b3:01:80:aa:
                    ec:c8:05:06:71:10:0b:bb:32:68:48:ae:3a:9d:93:
                    41:16:4d:3d:37:49:06:dc:a5:cc:0b:20:f0:c2:bb:
                    2a:2b:1a:0a:73:0d:38:e5:47:a9:07:77:96:59:63:
                    ed:26:4f:ba:de:db:4c:3e:69:58:6f:d3:8e:a5:0a:
                    04:73:fe:87:6f:e8:90:3d:74:dc:41:c1:62:82:7d:
                    3d:8c:c8:7a:6e:d7:26:b2:be:6e:5c:b7:24:df:50:
                    46:d4:cf:9c:96:04:bc:49:47:5a:95:35:a6:ec:46:
                    1a:11:9f:06:b6:1a:71:62:e4:7e:c4:6d:44:00:6d:
                    96:17:95:cf:e9:bf:7d:0e:dc:8c:ef:e9:b8:17:4b:
                    0c:78:10:ef:3a:9c:b9:c1:69:e6:0e:ac:42:f5:2d:
                    b1:45:58:c0:d0:39:07:3e:e5:8c:11:b6:c3:a2:78:
                    26:a4:ac:6c:d3:d5:9c:b7:fa:2f
                Exponent: 65537 (0x10001)
        X509v3 extensions:
            X509v3 Key Usage: critical
                Digital Signature, Key Encipherment
            X509v3 Extended Key Usage: 
                TLS Web Client Authentication
            X509v3 Subject Key Identifier: 
                6C:7F:C6:75:85:12:AF:49:10:0D:F2:BF:B3:E9:56:57:35:10:99:1B
            X509v3 Authority Key Identifier: 
                C3:44:AC:AD:87:36:8F:C8:36:93:59:1B:3B:E8:5F:AC:C6:6E:78:96
    Signature Algorithm: sha512WithRSAEncryption
    Signature Value:
        63:82:6e:97:6d:fa:37:4a:22:83:40:6a:25:b2:b0:6d:85:ec:
        be:2e:2f:bb:3d:af:e4:0f:e0:5e:51:0b:d5:bd:46:d0:e4:76:
        41:67:ac:c1:48:21:41:e7:4f:62:b8:e1:2e:7d:43:e9:27:4e:
        3b:fa:0f:78:89:8c:ee:96:a7:40:fe:d2:58:0d:a9:6e:2f:2a:
        12:de:44:83:76:ff:74:21:58:06:fe:ec:cd:f9:62:d3:15:24:
        c4:bc:cc:45:60:0d:d9:3d:de:1b:d7:0d:84:14:a1:c7:34:0d:
        31:40:5b:54:49:3b:54:3c:60:de:18:84:ab:7b:50:96:66:cb:
        84:10:1d:f3:8f:04:b1:58:b9:96:75:2b:d7:0b:5b:d2:6a:1c:
        f4:6d:c3:11:11:41:0f:39:bd:a6:2d:b6:5a:c0:f5:bb:c3:6f:
        c2:04:ec:90:86:4b:ae:b6:da:51:14:56:78:f7:c3:95:64:47:
        7d:69:8d:33:e7:74:0a:08:80:e3:17:b4:ee:94:67:34:7d:4f:
        9b:bd:c6:28:4f:b4:95:6f:4d:d7:8b:e0:c9:de:77:ce:34:4a:
        bd:c0:5d:0c:8c:28:56:6f:28:b8:68:82:11:2c:ba:e1:45:ba:
        63:7c:e0:62:9b:30:89:62:2d:34:07:26:63:80:30:6c:6d:fe:
        ad:12:79:8a:8a:d0:95:73:93:c4:59:1a:a1:e0:bc:a4:a5:e0:
        84:75:1d:8b:c6:8d:d5:c0:12:e5:87:71:6b:f5:3f:1f:c7:70:
        16:51:34:ee:ca:b6:62:c1:0b:77:b9:80:40:82:bb:a9:9e:59:
        12:f9:23:e1:6c:bb:a7:8b:8a:c1:fd:28:5f:17:70:a5:64:00:
        0c:cb:70:2e:5e:fe:09:5f:b8:4f:3f:7c:26:83:4d:81:b9:83:
        2d:73:e0:f2:a6:ec:46:22:c6:7d:ea:18:66:27:83:bb:ea:45:
        de:d4:d5:2a:5e:48:ef:3a:2e:fc:c6:5c:b3:73:bf:e0:54:1d:
        ee:a7:37:28:26:29
-----BEGIN CERTIFICATE-----
MIIEIjCCAoqgAwIBAgIBAzANBgkqhkiG9w0BAQ0FADAhMQ0wCwYDVQQKDAREQU9T
MRAwDgYDVQQDDAdEQU9TIENBMB4XDTIzMDUzMDAwNDMzM1oXDTI2MDUyOTAwNDMz
M1owHzENMAsGA1UECgwEREFPUzEOMAwGA1UEAwwFYWRtaW4wggGiMA0GCSqGSIb3
DQEBAQUAA4IBjwAwggGKAoIBgQDJKftxNdB1mmaJ6YjSm9XPsP+AMqXPKKOjLIMQ
pDYnHlLP6hi3cZUtdVCdG/Q6V4i2NemjyWNQVkSI/IC+d3nhw4AnIBl4QPs5n1hT
19FjB+gMzlhkCXaE3VKJhe8RQxfIb7SoaEPHVzlYKLN43PrrsMUhb3YKFeYCb5oE
3wTK2lvuDVsXn7SZ2VwbQsf+rvExPLuncL0mGSpCT3do1JmZrF1JDkyRnly89vkM
jNaD9caZTon7gZyBS96ee3v/Vxp+kP5VCtWiJzq3SYmGswGAquzIBQZxEAu7MmhI
rjqdk0EWTT03SQbcpcwLIPDCuyorGgpzDTjlR6kHd5ZZY+0mT7re20w+aVhv046l
CgRz/odv6JA9dNxBwWKCfT2MyHpu1yayvm5ctyTfUEbUz5yWBLxJR1qVNabsRhoR
nwa2GnFi5H7EbUQAbZYXlc/pv30O3Izv6bgXSwx4EO86nLnBaeYOrEL1LbFFWMDQ
OQc+5YwRtsOieCakrGzT1Zy3+i8CAwEAAaNnMGUwDgYDVR0PAQH/BAQDAgWgMBMG
A1UdJQQMMAoGCCsGAQUFBwMCMB0GA1UdDgQWBBRsf8Z1hRKvSRAN8r+z6VZXNRCZ
GzAfBgNVHSMEGDAWgBTDRKythzaPyDaTWRs76F+sxm54ljANBgkqhkiG9w0BAQ0F
AAOCAYEAY4Jul236N0oig0BqJbKwbYXsvi4vuz2v5A/gXlEL1b1G0OR2QWeswUgh
QedPYrjhLn1D6SdOO/oPeImM7panQP7SWA2pbi8qEt5Eg3b/dCFYBv7szfli0xUk
xLzMRWAN2T3eG9cNhBShxzQNMUBbVEk7VDxg3hiEq3tQlmbLhBAd848EsVi5lnUr
1wtb0moc9G3DERFBDzm9pi22WsD1u8NvwgTskIZLrrbaURRWePfDlWRHfWmNM+d0
CgiA4xe07pRnNH1Pm73GKE+0lW9N14vgyd53zjRKvcBdDIwoVm8ouGiCESy64UW6
Y3zgYpswiWItNAcmY4AwbG3+rRJ5iorQlXOTxFkaoeC8pKXghHUdi8aN1cAS5Ydx
a/U/H8dwFlE07sq2YsELd7mAQIK7qZ5ZEvkj4Wy7p4uKwf0oXxdwpWQADMtwLl7+
CV+4Tz98JoNNgbmDLXPg8qbsRiLGfeoYZieDu+pF3tTVKl5I7zou/MZcs3O/4FQd
7qc3KCYp
-----END CERTIFICATE-----
